; Function Attrs: mustprogress uwtable
define void @_ZN5arrow4util20ReferencedBufferSizeERKNS_9ArrayDataE(ptr noalias sret(%"class.arrow::Result.28") align 8 %agg.result, ptr noundef nonnull align 8 dereferenceable(104) %array_data) local_unnamed_addr #0 personality ptr @__gxx_personality_v0 {
entry:
  %ref.tmp = alloca %"class.arrow::Result", align 8
  %ranges = alloca %"class.std::shared_ptr.33", align 8
  call fastcc void @_ZN5arrow4util12_GLOBAL__N_118GetByteRangesArray4ExecERKNS_9ArrayDataE(ptr noalias nonnull align 8 %ref.tmp, ptr noundef nonnull align 8 dereferenceable(104) %array_data)
  %0 = load ptr, ptr %ref.tmp, align 8
  %cmp.i.i = icmp eq ptr %0, null
  br i1 %cmp.i.i, label %invoke.cont5, label %if.then

if.then:                                          ; preds = %entry
  call void @_ZN5arrow6ResultIlEC2ERKNS_6StatusE(ptr noundef nonnull align 8 dereferenceable(16) %agg.result, ptr noundef nonnull align 8 dereferenceable(8) %ref.tmp) #17
  br label %cleanup

invoke.cont5:                                     ; preds = %entry
  call void @llvm.experimental.noalias.scope.decl(metadata !40)
  call void @llvm.experimental.noalias.scope.decl(metadata !43)
  %storage_.i.i = getelementptr inbounds i8, ptr %ref.tmp, i64 8
  %1 = load ptr, ptr %storage_.i.i, align 8, !noalias !46
  store ptr %1, ptr %ranges, align 8, !alias.scope !46
  %_M_refcount.i.i.i.i = getelementptr inbounds i8, ptr %ranges, i64 8
  %_M_refcount4.i.i.i.i = getelementptr inbounds i8, ptr %ref.tmp, i64 16
  %2 = load ptr, ptr %_M_refcount4.i.i.i.i, align 8, !noalias !46
  store ptr null, ptr %_M_refcount4.i.i.i.i, align 8, !noalias !46
  store ptr %2, ptr %_M_refcount.i.i.i.i, align 8, !alias.scope !46
  store ptr null, ptr %storage_.i.i, align 8, !noalias !46
  %call10 = invoke fastcc noundef i64 @_ZN5arrow4util12_GLOBAL__N_117RangesToLengthSumERKNS_5ArrayE(ptr noundef nonnull align 8 dereferenceable(32) %1)
          to label %invoke.cont9 unwind label %lpad8

invoke.cont9:                                     ; preds = %invoke.cont5
  store ptr null, ptr %agg.result, align 8
  %storage_.i.i4 = getelementptr inbounds i8, ptr %agg.result, i64 8
  store i64 %call10, ptr %storage_.i.i4, align 8
  %cmp.not.i.i.i = icmp eq ptr %2, null
  br i1 %cmp.not.i.i.i, label %cleanup, label %if.then.i.i.i

if.then.i.i.i:                                    ; preds = %invoke.cont9
  %_M_use_count.i.i.i.i = getelementptr inbounds i8, ptr %2, i64 8
  %3 = load atomic i64, ptr %_M_use_count.i.i.i.i acquire, align 8
  %cmp.i.i.i.i = icmp eq i64 %3, 4294967297
  %4 = trunc i64 %3 to i32
  br i1 %cmp.i.i.i.i, label %if.then.i.i.i.i, label %if.end.i.i.i.i

if.then.i.i.i.i:                                  ; preds = %if.then.i.i.i
  store i32 0, ptr %_M_use_count.i.i.i.i, align 8
  %_M_weak_count.i.i.i.i = getelementptr inbounds i8, ptr %2, i64 12
  store i32 0, ptr %_M_weak_count.i.i.i.i, align 4
  %vtable.i.i.i.i = load ptr, ptr %2, align 8
  %vfn.i.i.i.i = getelementptr inbounds i8, ptr %vtable.i.i.i.i, i64 16
  %5 = load ptr, ptr %vfn.i.i.i.i, align 8
  call void %5(ptr noundef nonnull align 8 dereferenceable(16) %2) #17
  br label %if.end8.sink.split.i.i.i.i

if.end.i.i.i.i:                                   ; preds = %if.then.i.i.i
  %6 = load i8, ptr @__libc_single_threaded, align 1
  %tobool.i.not.i.i.i.i = icmp eq i8 %6, 0
  br i1 %tobool.i.not.i.i.i.i, label %if.else.i.i.i.i.i, label %if.then.i.i.i.i.i

if.then.i.i.i.i.i:                                ; preds = %if.end.i.i.i.i
  %add.i.i.i.i.i = add nsw i32 %4, -1
  store i32 %add.i.i.i.i.i, ptr %_M_use_count.i.i.i.i, align 4
  br label %_ZN9__gnu_cxx27__exchange_and_add_dispatchEPii.exit.i.i.i.i

if.else.i.i.i.i.i:                                ; preds = %if.end.i.i.i.i
  %7 = atomicrmw volatile add ptr %_M_use_count.i.i.i.i, i32 -1 acq_rel, align 4
  br label %_ZN9__gnu_cxx27__exchange_and_add_dispatchEPii.exit.i.i.i.i

_ZN9__gnu_cxx27__exchange_and_add_dispatchEPii.exit.i.i.i.i: ; preds = %if.else.i.i.i.i.i, %if.then.i.i.i.i.i
  %retval.i.0.i.i.i.i = phi i32 [ %4, %if.then.i.i.i.i.i ], [ %7, %if.else.i.i.i.i.i ]
  %cmp6.i.i.i.i = icmp eq i32 %retval.i.0.i.i.i.i, 1
  br i1 %cmp6.i.i.i.i, label %if.then7.i.i.i.i, label %cleanup

if.then7.i.i.i.i:                                 ; preds = %_ZN9__gnu_cxx27__exchange_and_add_dispatchEPii.exit.i.i.i.i
  %vtable.i.i.i.i.i.i = load ptr, ptr %2, align 8
  %vfn.i.i.i.i.i.i = getelementptr inbounds i8, ptr %vtable.i.i.i.i.i.i, i64 16
  %8 = load ptr, ptr %vfn.i.i.i.i.i.i, align 8
  call void %8(ptr noundef nonnull align 8 dereferenceable(16) %2) #17
  %_M_weak_count.i.i.i.i.i.i = getelementptr inbounds i8, ptr %2, i64 12
  %9 = load i8, ptr @__libc_single_threaded, align 1
  %tobool.i.not.i.i.i.i.i.i = icmp eq i8 %9, 0
  br i1 %tobool.i.not.i.i.i.i.i.i, label %if.else.i.i.i.i.i.i.i, label %if.then.i.i.i.i.i.i.i

if.then.i.i.i.i.i.i.i:                            ; preds = %if.then7.i.i.i.i
  %10 = load i32, ptr %_M_weak_count.i.i.i.i.i.i, align 4
  %add.i.i.i.i.i.i.i = add nsw i32 %10, -1
  store i32 %add.i.i.i.i.i.i.i, ptr %_M_weak_count.i.i.i.i.i.i, align 4
  br label %_ZN9__gnu_cxx27__exchange_and_add_dispatchEPii.exit.i.i.i.i.i.i

if.else.i.i.i.i.i.i.i:                            ; preds = %if.then7.i.i.i.i
  %11 = atomicrmw volatile add ptr %_M_weak_count.i.i.i.i.i.i, i32 -1 acq_rel, align 4
  br label %_ZN9__gnu_cxx27__exchange_and_add_dispatchEPii.exit.i.i.i.i.i.i

_ZN9__gnu_cxx27__exchange_and_add_dispatchEPii.exit.i.i.i.i.i.i: ; preds = %if.else.i.i.i.i.i.i.i, %if.then.i.i.i.i.i.i.i
  %retval.i.0.i.i.i.i.i.i = phi i32 [ %10, %if.then.i.i.i.i.i.i.i ], [ %11, %if.else.i.i.i.i.i.i.i ]
  %cmp.i.i.i.i.i.i = icmp eq i32 %retval.i.0.i.i.i.i.i.i, 1
  br i1 %cmp.i.i.i.i.i.i, label %if.end8.sink.split.i.i.i.i, label %cleanup

if.end8.sink.split.i.i.i.i:                       ; preds = %_ZN9__gnu_cxx27__exchange_and_add_dispatchEPii.exit.i.i.i.i.i.i, %if.then.i.i.i.i
  %vtable2.i.i.i.i.i.i = load ptr, ptr %2, align 8
  %vfn3.i.i.i.i.i.i = getelementptr inbounds i8, ptr %vtable2.i.i.i.i.i.i, i64 24
  %12 = load ptr, ptr %vfn3.i.i.i.i.i.i, align 8
  call void %12(ptr noundef nonnull align 8 dereferenceable(16) %2) #17
  br label %cleanup

lpad8:                                            ; preds = %invoke.cont5
  %13 = landingpad { ptr, i32 }
          cleanup
  call void @_ZNSt10shared_ptrIN5arrow5ArrayEED2Ev(ptr noundef nonnull align 8 dereferenceable(16) %ranges) #17
  call void @_ZN5arrow6ResultISt10shared_ptrINS_5ArrayEEED2Ev(ptr noundef nonnull align 8 dereferenceable(24) %ref.tmp) #17
  resume { ptr, i32 } %13

cleanup:                                          ; preds = %if.end8.sink.split.i.i.i.i, %_ZN9__gnu_cxx27__exchange_and_add_dispatchEPii.exit.i.i.i.i.i.i, %_ZN9__gnu_cxx27__exchange_and_add_dispatchEPii.exit.i.i.i.i, %invoke.cont9, %if.then
  call void @_ZN5arrow6ResultISt10shared_ptrINS_5ArrayEEED2Ev(ptr noundef nonnull align 8 dereferenceable(24) %ref.tmp) #17
  ret void
}